target datalayout = "e-m:e-p270:32:32-p271:32:32-p272:64:64-i64:64-i128:128-f80:128-n8:16:32:64-S128"
target triple = "x86_64-pc-linux-gnu"

%union.pthread_mutex_t = type { %struct.__pthread_mutex_s }
%struct.__pthread_mutex_s = type { i32, i32, i32, i32, i32, i16, i16, %struct.__pthread_internal_list }
%struct.__pthread_internal_list = type { ptr, ptr }
%struct._priv_exr_part_t = type { i32, i32, %struct.exr_attribute_list, ptr, ptr, ptr, ptr, ptr, ptr, ptr, ptr, ptr, ptr, ptr, ptr, ptr, ptr, %struct.exr_attr_box2i_t, %struct.exr_attr_box2i_t, i32, i32, i32, float, i32, i32, ptr, ptr, ptr, ptr, i64, i16, i16, i32, i64, i64 }
%struct.exr_attribute_list = type { i32, i32, ptr, ptr }
%struct.exr_attr_box2i_t = type { %struct.exr_attr_v2i_t, %struct.exr_attr_v2i_t }
%struct.exr_attr_v2i_t = type { i32, i32 }
%struct._priv_exr_context_t = type { i8, i8, i8, i8, i8, i8, i8, i8, %struct.exr_attr_string_t, %struct.exr_attr_string_t, ptr, ptr, ptr, ptr, ptr, ptr, ptr, ptr, i32, i32, i32, i32, i32, float, ptr, ptr, ptr, i64, ptr, ptr, i64, i32, i32, i32, i32, %struct._priv_exr_part_t, ptr, ptr, %struct.exr_attribute_list, %union.pthread_mutex_t, i8, i8, [2 x i8], i32 }
%struct.exr_attr_string_t = type { i32, i32, ptr }

; Function Attrs: nounwind uwtable
define internal void @internal_exr_destroy_part(ptr noundef %0, ptr noundef %1) #0 {
  %3 = alloca ptr, align 8
  %4 = alloca ptr, align 8
  %5 = alloca ptr, align 8
  %6 = alloca ptr, align 8
  %7 = alloca i64, align 8
  %8 = alloca i64, align 8
  store ptr %0, ptr %3, align 8, !tbaa !3
  store ptr %1, ptr %4, align 8, !tbaa !27
  call void @llvm.lifetime.start.p0(i64 8, ptr %5) #7
  %9 = load ptr, ptr %3, align 8, !tbaa !3
  %10 = getelementptr inbounds nuw %struct._priv_exr_context_t, ptr %9, i32 0, i32 17
  %11 = load ptr, ptr %10, align 8, !tbaa !31
  store ptr %11, ptr %5, align 8, !tbaa !34
  call void @llvm.lifetime.start.p0(i64 8, ptr %6) #7
  %12 = load ptr, ptr %3, align 8, !tbaa !3
  %13 = load ptr, ptr %4, align 8, !tbaa !27
  %14 = getelementptr inbounds nuw %struct._priv_exr_part_t, ptr %13, i32 0, i32 2
  %15 = call i32 @exr_attr_list_destroy(ptr noundef %12, ptr noundef %14)
  %16 = load ptr, ptr %4, align 8, !tbaa !27
  %17 = getelementptr inbounds nuw %struct._priv_exr_part_t, ptr %16, i32 0, i32 25
  %18 = load ptr, ptr %17, align 8, !tbaa !54
  %19 = icmp ne ptr %18, null
  br i1 %19, label %20, label %25

20:                                               ; preds = %2
  %21 = load ptr, ptr %5, align 8, !tbaa !34
  %22 = load ptr, ptr %4, align 8, !tbaa !27
  %23 = getelementptr inbounds nuw %struct._priv_exr_part_t, ptr %22, i32 0, i32 25
  %24 = load ptr, ptr %23, align 8, !tbaa !54
  call void %21(ptr noundef %24)
  br label %25

25:                                               ; preds = %20, %2
  %26 = load ptr, ptr %4, align 8, !tbaa !27
  %27 = getelementptr inbounds nuw %struct._priv_exr_part_t, ptr %26, i32 0, i32 34
  %28 = load atomic i64, ptr %27 seq_cst, align 8
  store i64 %28, ptr %7, align 8
  %29 = load i64, ptr %7, align 8, !tbaa !36
  %30 = inttoptr i64 %29 to ptr
  store ptr %30, ptr %6, align 8, !tbaa !55
  %31 = load ptr, ptr %4, align 8, !tbaa !27
  %32 = getelementptr inbounds nuw %struct._priv_exr_part_t, ptr %31, i32 0, i32 34
  store i64 0, ptr %8, align 8, !tbaa !36
  %33 = load i64, ptr %8, align 8
  store atomic i64 %33, ptr %32 seq_cst, align 8
  %34 = load ptr, ptr %6, align 8, !tbaa !55
  %35 = icmp ne ptr %34, null
  br i1 %35, label %36, label %43

36:                                               ; preds = %25
  %37 = load ptr, ptr %6, align 8, !tbaa !55
  %38 = ptrtoint ptr %37 to i64
  %39 = icmp ne i64 %38, -1
  br i1 %39, label %40, label %43

40:                                               ; preds = %36
  %41 = load ptr, ptr %5, align 8, !tbaa !34
  %42 = load ptr, ptr %6, align 8, !tbaa !55
  call void %41(ptr noundef %42)
  br label %43

43:                                               ; preds = %40, %36, %25
  call void @llvm.lifetime.end.p0(i64 8, ptr %6) #7
  call void @llvm.lifetime.end.p0(i64 8, ptr %5) #7
  ret void
}

; Function Attrs: nounwind uwtable
define internal void @internal_exr_destroy_parts(ptr noundef %0) #0 {
  %2 = alloca ptr, align 8
  %3 = alloca ptr, align 8
  %4 = alloca i32, align 4
  %5 = alloca ptr, align 8
  store ptr %0, ptr %2, align 8, !tbaa !3
  call void @llvm.lifetime.start.p0(i64 8, ptr %3) #7
  %6 = load ptr, ptr %2, align 8, !tbaa !3
  %7 = getelementptr inbounds nuw %struct._priv_exr_context_t, ptr %6, i32 0, i32 17
  %8 = load ptr, ptr %7, align 8, !tbaa !31
  store ptr %8, ptr %3, align 8, !tbaa !34
  call void @llvm.lifetime.start.p0(i64 4, ptr %4) #7
  store i32 0, ptr %4, align 4, !tbaa !26
  br label %9

9:                                                ; preds = %36, %1
  %10 = load i32, ptr %4, align 4, !tbaa !26
  %11 = load ptr, ptr %2, align 8, !tbaa !3
  %12 = getelementptr inbounds nuw %struct._priv_exr_context_t, ptr %11, i32 0, i32 34
  %13 = load i32, ptr %12, align 4, !tbaa !13
  %14 = icmp slt i32 %10, %13
  br i1 %14, label %16, label %15

15:                                               ; preds = %9
  call void @llvm.lifetime.end.p0(i64 4, ptr %4) #7
  br label %39

16:                                               ; preds = %9
  call void @llvm.lifetime.start.p0(i64 8, ptr %5) #7
  %17 = load ptr, ptr %2, align 8, !tbaa !3
  %18 = getelementptr inbounds nuw %struct._priv_exr_context_t, ptr %17, i32 0, i32 37
  %19 = load ptr, ptr %18, align 8, !tbaa !50
  %20 = load i32, ptr %4, align 4, !tbaa !26
  %21 = sext i32 %20 to i64
  %22 = getelementptr inbounds ptr, ptr %19, i64 %21
  %23 = load ptr, ptr %22, align 8, !tbaa !27
  store ptr %23, ptr %5, align 8, !tbaa !27
  %24 = load ptr, ptr %2, align 8, !tbaa !3
  %25 = load ptr, ptr %5, align 8, !tbaa !27
  call void @internal_exr_destroy_part(ptr noundef %24, ptr noundef %25)
  %26 = load ptr, ptr %5, align 8, !tbaa !27
  %27 = load ptr, ptr %2, align 8, !tbaa !3
  %28 = getelementptr inbounds nuw %struct._priv_exr_context_t, ptr %27, i32 0, i32 35
  %29 = icmp ne ptr %26, %28
  br i1 %29, label %30, label %33

30:                                               ; preds = %16
  %31 = load ptr, ptr %3, align 8, !tbaa !34
  %32 = load ptr, ptr %5, align 8, !tbaa !27
  call void %31(ptr noundef %32)
  br label %35

33:                                               ; preds = %16
  %34 = load ptr, ptr %5, align 8, !tbaa !27
  call void @llvm.memset.p0.i64(ptr align 8 %34, i8 0, i64 264, i1 false)
  br label %35

35:                                               ; preds = %33, %30
  call void @llvm.lifetime.end.p0(i64 8, ptr %5) #7
  br label %36

36:                                               ; preds = %35
  %37 = load i32, ptr %4, align 4, !tbaa !26
  %38 = add nsw i32 %37, 1
  store i32 %38, ptr %4, align 4, !tbaa !26
  br label %9, !llvm.loop !96

39:                                               ; preds = %15
  %40 = load ptr, ptr %2, align 8, !tbaa !3
  %41 = getelementptr inbounds nuw %struct._priv_exr_context_t, ptr %40, i32 0, i32 34
  %42 = load i32, ptr %41, align 4, !tbaa !13
  %43 = icmp sgt i32 %42, 1
  br i1 %43, label %44, label %49

44:                                               ; preds = %39
  %45 = load ptr, ptr %3, align 8, !tbaa !34
  %46 = load ptr, ptr %2, align 8, !tbaa !3
  %47 = getelementptr inbounds nuw %struct._priv_exr_context_t, ptr %46, i32 0, i32 37
  %48 = load ptr, ptr %47, align 8, !tbaa !50
  call void %45(ptr noundef %48)
  br label %49

49:                                               ; preds = %44, %39
  %50 = load ptr, ptr %2, align 8, !tbaa !3
  %51 = getelementptr inbounds nuw %struct._priv_exr_context_t, ptr %50, i32 0, i32 37
  store ptr null, ptr %51, align 8, !tbaa !50
  %52 = load ptr, ptr %2, align 8, !tbaa !3
  %53 = getelementptr inbounds nuw %struct._priv_exr_context_t, ptr %52, i32 0, i32 34
  store i32 0, ptr %53, align 4, !tbaa !13
  call void @llvm.lifetime.end.p0(i64 8, ptr %3) #7
  ret void
}

; Function Attrs: nounwind uwtable
define hidden void @internal_exr_destroy_context(ptr noundef %0) #0 {
  %2 = alloca ptr, align 8
  %3 = alloca ptr, align 8
  store ptr %0, ptr %2, align 8, !tbaa !3
  call void @llvm.lifetime.start.p0(i64 8, ptr %3) #7
  %4 = load ptr, ptr %2, align 8, !tbaa !3
  %5 = getelementptr inbounds nuw %struct._priv_exr_context_t, ptr %4, i32 0, i32 17
  %6 = load ptr, ptr %5, align 8, !tbaa !31
  store ptr %6, ptr %3, align 8, !tbaa !34
  %7 = load ptr, ptr %2, align 8, !tbaa !3
  %8 = load ptr, ptr %2, align 8, !tbaa !3
  %9 = getelementptr inbounds nuw %struct._priv_exr_context_t, ptr %8, i32 0, i32 8
  %10 = call i32 @exr_attr_string_destroy(ptr noundef %7, ptr noundef %9)
  %11 = load ptr, ptr %2, align 8, !tbaa !3
  %12 = load ptr, ptr %2, align 8, !tbaa !3
  %13 = getelementptr inbounds nuw %struct._priv_exr_context_t, ptr %12, i32 0, i32 9
  %14 = call i32 @exr_attr_string_destroy(ptr noundef %11, ptr noundef %13)
  %15 = load ptr, ptr %2, align 8, !tbaa !3
  %16 = load ptr, ptr %2, align 8, !tbaa !3
  %17 = getelementptr inbounds nuw %struct._priv_exr_context_t, ptr %16, i32 0, i32 38
  %18 = call i32 @exr_attr_list_destroy(ptr noundef %15, ptr noundef %17)
  %19 = load ptr, ptr %2, align 8, !tbaa !3
  call void @internal_exr_destroy_parts(ptr noundef %19)
  %20 = load ptr, ptr %2, align 8, !tbaa !3
  %21 = getelementptr inbounds nuw %struct._priv_exr_context_t, ptr %20, i32 0, i32 39
  %22 = call i32 @pthread_mutex_destroy(ptr noundef %21) #7
  %23 = load ptr, ptr %3, align 8, !tbaa !34
  %24 = load ptr, ptr %2, align 8, !tbaa !3
  call void %23(ptr noundef %24)
  call void @llvm.lifetime.end.p0(i64 8, ptr %3) #7
  ret void
}