; Function Attrs: nounwind uwtable
define hidden void @internal_exr_destroy_context(ptr noundef %0) local_unnamed_addr #0 {
  %2 = getelementptr inbounds nuw i8, ptr %0, i64 96
  %3 = load ptr, ptr %2, align 8, !tbaa !25
  %4 = getelementptr inbounds nuw i8, ptr %0, i64 8
  %5 = tail call i32 @exr_attr_string_destroy(ptr noundef %0, ptr noundef nonnull %4) #12
  %6 = getelementptr inbounds nuw i8, ptr %0, i64 24
  %7 = tail call i32 @exr_attr_string_destroy(ptr noundef %0, ptr noundef nonnull %6) #12
  %8 = getelementptr inbounds nuw i8, ptr %0, i64 480
  %9 = tail call i32 @exr_attr_list_destroy(ptr noundef %0, ptr noundef nonnull %8) #12
  %10 = load ptr, ptr %2, align 8, !tbaa !25
  %11 = getelementptr inbounds nuw i8, ptr %0, i64 196
  %12 = load i32, ptr %11, align 4, !tbaa !3
  %13 = icmp sgt i32 %12, 0
  br i1 %13, label %.lr.ph.i, label %internal_exr_destroy_parts.exit

.lr.ph.i:                                         ; preds = %1
  %14 = getelementptr inbounds nuw i8, ptr %0, i64 472
  %15 = getelementptr inbounds nuw i8, ptr %0, i64 200
  br label %17

._crit_edge.i:                                    ; preds = %35
  %16 = icmp sgt i32 %36, 1
  br i1 %16, label %39, label %internal_exr_destroy_parts.exit

17:                                               ; preds = %35, %.lr.ph.i
  %indvars.iv.i = phi i64 [ 0, %.lr.ph.i ], [ %indvars.iv.next.i, %35 ]
  %18 = load ptr, ptr %14, align 8, !tbaa !38
  %19 = getelementptr inbounds nuw ptr, ptr %18, i64 %indvars.iv.i
  %20 = load ptr, ptr %19, align 8, !tbaa !39
  %21 = load ptr, ptr %2, align 8, !tbaa !25
  %22 = getelementptr inbounds nuw i8, ptr %20, i64 8
  %23 = tail call i32 @exr_attr_list_destroy(ptr noundef nonnull %0, ptr noundef nonnull %22) #12
  %24 = getelementptr inbounds nuw i8, ptr %20, i64 200
  %25 = load ptr, ptr %24, align 8, !tbaa !42
  %.not.i.i = icmp eq ptr %25, null
  br i1 %.not.i.i, label %27, label %26

26:                                               ; preds = %17
  tail call void %21(ptr noundef nonnull %25) #12
  br label %27

27:                                               ; preds = %26, %17
  %28 = getelementptr inbounds nuw i8, ptr %20, i64 256
  %29 = load atomic i64, ptr %28 seq_cst, align 8
  store atomic i64 0, ptr %28 seq_cst, align 8
  %30 = add i64 %29, -1
  %or.cond.i.i = icmp ult i64 %30, -2
  br i1 %or.cond.i.i, label %31, label %internal_exr_destroy_part.exit.i

31:                                               ; preds = %27
  %32 = inttoptr i64 %29 to ptr
  tail call void %21(ptr noundef %32) #12
  br label %internal_exr_destroy_part.exit.i

internal_exr_destroy_part.exit.i:                 ; preds = %31, %27
  %.not.i = icmp eq ptr %20, %15
  br i1 %.not.i, label %34, label %33

33:                                               ; preds = %internal_exr_destroy_part.exit.i
  tail call void %10(ptr noundef nonnull %20) #12
  br label %35

34:                                               ; preds = %internal_exr_destroy_part.exit.i
  tail call void @llvm.memset.p0.i64(ptr noundef nonnull align 8 dereferenceable(264) %20, i8 0, i64 264, i1 false)
  br label %35

35:                                               ; preds = %34, %33
  %indvars.iv.next.i = add nuw nsw i64 %indvars.iv.i, 1
  %36 = load i32, ptr %11, align 4, !tbaa !3
  %37 = sext i32 %36 to i64
  %38 = icmp slt i64 %indvars.iv.next.i, %37
  br i1 %38, label %17, label %._crit_edge.i, !llvm.loop !88

39:                                               ; preds = %._crit_edge.i
  %40 = load ptr, ptr %14, align 8, !tbaa !38
  tail call void %10(ptr noundef %40) #12
  br label %internal_exr_destroy_parts.exit

internal_exr_destroy_parts.exit:                  ; preds = %1, %._crit_edge.i, %39
  %41 = getelementptr inbounds nuw i8, ptr %0, i64 472
  store ptr null, ptr %41, align 8, !tbaa !38
  store i32 0, ptr %11, align 4, !tbaa !3
  %42 = getelementptr inbounds nuw i8, ptr %0, i64 504
  %43 = tail call i32 @pthread_mutex_destroy(ptr noundef nonnull %42) #12
  tail call void %3(ptr noundef nonnull %0) #12
  ret void
}